target datalayout = "e-m:e-p270:32:32-p271:32:32-p272:64:64-i64:64-i128:128-f80:128-n8:16:32:64-S128"
target triple = "x86_64-pc-linux-gnu"

%struct.s_mmbuffer = type { ptr, i64 }
%struct.s_xdemitcb = type { ptr, ptr, ptr }

@.str = private unnamed_addr constant [30 x i8] c"\0A\\ No newline at end of file\0A\00", align 1

; Function Attrs: nounwind uwtable
define dso_local i32 @xdl_emit_diffrec(ptr noundef %0, i64 noundef %1, ptr noundef %2, i64 noundef %3, ptr noundef %4) #0 {
  %6 = alloca i32, align 4
  %7 = alloca ptr, align 8
  %8 = alloca i64, align 8
  %9 = alloca ptr, align 8
  %10 = alloca i64, align 8
  %11 = alloca ptr, align 8
  %12 = alloca i32, align 4
  %13 = alloca [3 x %struct.s_mmbuffer], align 16
  %14 = alloca i32, align 4
  store ptr %0, ptr %7, align 8, !tbaa !10
  store i64 %1, ptr %8, align 8, !tbaa !4
  store ptr %2, ptr %9, align 8, !tbaa !10
  store i64 %3, ptr %10, align 8, !tbaa !4
  store ptr %4, ptr %11, align 8, !tbaa !13
  call void @llvm.lifetime.start.p0(i64 4, ptr %12) #6
  store i32 2, ptr %12, align 4, !tbaa !15
  call void @llvm.lifetime.start.p0(i64 48, ptr %13) #6
  %15 = load ptr, ptr %9, align 8, !tbaa !10
  %16 = getelementptr inbounds [3 x %struct.s_mmbuffer], ptr %13, i64 0, i64 0
  %17 = getelementptr inbounds nuw %struct.s_mmbuffer, ptr %16, i32 0, i32 0
  store ptr %15, ptr %17, align 16, !tbaa !17
  %18 = load i64, ptr %10, align 8, !tbaa !4
  %19 = getelementptr inbounds [3 x %struct.s_mmbuffer], ptr %13, i64 0, i64 0
  %20 = getelementptr inbounds nuw %struct.s_mmbuffer, ptr %19, i32 0, i32 1
  store i64 %18, ptr %20, align 8, !tbaa !19
  %21 = load ptr, ptr %7, align 8, !tbaa !10
  %22 = getelementptr inbounds [3 x %struct.s_mmbuffer], ptr %13, i64 0, i64 1
  %23 = getelementptr inbounds nuw %struct.s_mmbuffer, ptr %22, i32 0, i32 0
  store ptr %21, ptr %23, align 16, !tbaa !17
  %24 = load i64, ptr %8, align 8, !tbaa !4
  %25 = getelementptr inbounds [3 x %struct.s_mmbuffer], ptr %13, i64 0, i64 1
  %26 = getelementptr inbounds nuw %struct.s_mmbuffer, ptr %25, i32 0, i32 1
  store i64 %24, ptr %26, align 8, !tbaa !19
  %27 = load i64, ptr %8, align 8, !tbaa !4
  %28 = icmp sgt i64 %27, 0
  br i1 %28, label %29, label %48

29:                                               ; preds = %5
  %30 = load ptr, ptr %7, align 8, !tbaa !10
  %31 = load i64, ptr %8, align 8, !tbaa !4
  %32 = sub nsw i64 %31, 1
  %33 = getelementptr inbounds i8, ptr %30, i64 %32
  %34 = load i8, ptr %33, align 1, !tbaa !20
  %35 = sext i8 %34 to i32
  %36 = icmp ne i32 %35, 10
  br i1 %36, label %37, label %48

37:                                               ; preds = %29
  %38 = getelementptr inbounds [3 x %struct.s_mmbuffer], ptr %13, i64 0, i64 2
  %39 = getelementptr inbounds nuw %struct.s_mmbuffer, ptr %38, i32 0, i32 0
  store ptr @.str, ptr %39, align 16, !tbaa !17
  %40 = getelementptr inbounds [3 x %struct.s_mmbuffer], ptr %13, i64 0, i64 2
  %41 = getelementptr inbounds nuw %struct.s_mmbuffer, ptr %40, i32 0, i32 0
  %42 = load ptr, ptr %41, align 16, !tbaa !17
  %43 = call i64 @strlen(ptr noundef %42) #7
  %44 = getelementptr inbounds [3 x %struct.s_mmbuffer], ptr %13, i64 0, i64 2
  %45 = getelementptr inbounds nuw %struct.s_mmbuffer, ptr %44, i32 0, i32 1
  store i64 %43, ptr %45, align 8, !tbaa !19
  %46 = load i32, ptr %12, align 4, !tbaa !15
  %47 = add nsw i32 %46, 1
  store i32 %47, ptr %12, align 4, !tbaa !15
  br label %48

48:                                               ; preds = %37, %29, %5
  %49 = load ptr, ptr %11, align 8, !tbaa !13
  %50 = getelementptr inbounds nuw %struct.s_xdemitcb, ptr %49, i32 0, i32 2
  %51 = load ptr, ptr %50, align 8, !tbaa !21
  %52 = load ptr, ptr %11, align 8, !tbaa !13
  %53 = getelementptr inbounds nuw %struct.s_xdemitcb, ptr %52, i32 0, i32 0
  %54 = load ptr, ptr %53, align 8, !tbaa !23
  %55 = getelementptr inbounds [3 x %struct.s_mmbuffer], ptr %13, i64 0, i64 0
  %56 = load i32, ptr %12, align 4, !tbaa !15
  %57 = call i32 %51(ptr noundef %54, ptr noundef %55, i32 noundef %56)
  %58 = icmp slt i32 %57, 0
  br i1 %58, label %59, label %60

59:                                               ; preds = %48
  store i32 -1, ptr %6, align 4
  store i32 1, ptr %14, align 4
  br label %61

60:                                               ; preds = %48
  store i32 0, ptr %6, align 4
  store i32 1, ptr %14, align 4
  br label %61

61:                                               ; preds = %60, %59
  call void @llvm.lifetime.end.p0(i64 48, ptr %13) #6
  call void @llvm.lifetime.end.p0(i64 4, ptr %12) #6
  %62 = load i32, ptr %6, align 4
  ret i32 %62
}