; Function Attrs: nounwind uwtable
define dso_local range(i32 -1, 1) i32 @xdl_emit_diffrec(ptr noundef %0, i64 noundef %1, ptr noundef %2, i64 noundef %3, ptr noundef readonly captures(none) %4) local_unnamed_addr #2 {
  %6 = alloca [3 x %struct.s_mmbuffer], align 16
  call void @llvm.lifetime.start.p0(i64 48, ptr nonnull %6) #18
  store ptr %2, ptr %6, align 16, !tbaa !6
  %7 = getelementptr inbounds nuw i8, ptr %6, i64 8
  store i64 %3, ptr %7, align 8, !tbaa !13
  %8 = getelementptr inbounds nuw i8, ptr %6, i64 16
  store ptr %0, ptr %8, align 16, !tbaa !6
  %9 = getelementptr inbounds nuw i8, ptr %6, i64 24
  store i64 %1, ptr %9, align 8, !tbaa !13
  %10 = icmp sgt i64 %1, 0
  br i1 %10, label %11, label %18

11:                                               ; preds = %5
  %12 = getelementptr i8, ptr %0, i64 %1
  %13 = getelementptr i8, ptr %12, i64 -1
  %14 = load i8, ptr %13, align 1, !tbaa !14
  %.not = icmp eq i8 %14, 10
  br i1 %.not, label %18, label %15

15:                                               ; preds = %11
  %16 = getelementptr inbounds nuw i8, ptr %6, i64 32
  store ptr @.str, ptr %16, align 16, !tbaa !6
  %17 = getelementptr inbounds nuw i8, ptr %6, i64 40
  store i64 29, ptr %17, align 8, !tbaa !13
  br label %18

18:                                               ; preds = %15, %11, %5
  %.0 = phi i32 [ 3, %15 ], [ 2, %11 ], [ 2, %5 ]
  %19 = getelementptr inbounds nuw i8, ptr %4, i64 16
  %20 = load ptr, ptr %19, align 8, !tbaa !15
  %21 = load ptr, ptr %4, align 8, !tbaa !17
  %22 = call i32 %20(ptr noundef %21, ptr noundef nonnull %6, i32 noundef %.0) #18
  %.lobit = ashr i32 %22, 31
  call void @llvm.lifetime.end.p0(i64 48, ptr nonnull %6) #18
  ret i32 %.lobit
}